target datalayout = "e-m:e-p270:32:32-p271:32:32-p272:64:64-i64:64-i128:128-f80:128-n8:16:32:64-S128"
target triple = "x86_64-pc-linux-gnu"

; Function Attrs: noinline nounwind uwtable
define i32 @ma_strncat_s(ptr noundef %0, i64 noundef %1, ptr noundef %2, i64 noundef %3) #1 {
  %5 = alloca i32, align 4
  %6 = alloca ptr, align 8
  %7 = alloca i64, align 8
  %8 = alloca ptr, align 8
  %9 = alloca i64, align 8
  %10 = alloca ptr, align 8
  %11 = alloca i32, align 4
  store ptr %0, ptr %6, align 8, !tbaa !10
  store i64 %1, ptr %7, align 8, !tbaa !12
  store ptr %2, ptr %8, align 8, !tbaa !10
  store i64 %3, ptr %9, align 8, !tbaa !12
  call void @llvm.lifetime.start.p0(i64 8, ptr %10) #16
  %12 = load ptr, ptr %6, align 8, !tbaa !10
  %13 = icmp eq ptr %12, null
  br i1 %13, label %14, label %15

14:                                               ; preds = %4
  store i32 22, ptr %5, align 4
  store i32 1, ptr %11, align 4
  br label %86

15:                                               ; preds = %4
  %16 = load i64, ptr %7, align 8, !tbaa !12
  %17 = icmp eq i64 %16, 0
  br i1 %17, label %18, label %19

18:                                               ; preds = %15
  store i32 34, ptr %5, align 4
  store i32 1, ptr %11, align 4
  br label %86

19:                                               ; preds = %15
  %20 = load ptr, ptr %8, align 8, !tbaa !10
  %21 = icmp eq ptr %20, null
  br i1 %21, label %22, label %23

22:                                               ; preds = %19
  store i32 22, ptr %5, align 4
  store i32 1, ptr %11, align 4
  br label %86

23:                                               ; preds = %19
  %24 = load ptr, ptr %6, align 8, !tbaa !10
  store ptr %24, ptr %10, align 8, !tbaa !10
  br label %25

25:                                               ; preds = %36, %23
  %26 = load i64, ptr %7, align 8, !tbaa !12
  %27 = icmp ugt i64 %26, 0
  br i1 %27, label %28, label %34

28:                                               ; preds = %25
  %29 = load ptr, ptr %6, align 8, !tbaa !10
  %30 = getelementptr inbounds i8, ptr %29, i64 0
  %31 = load i8, ptr %30, align 1, !tbaa !14
  %32 = sext i8 %31 to i32
  %33 = icmp ne i32 %32, 0
  br label %34

34:                                               ; preds = %28, %25
  %35 = phi i1 [ false, %25 ], [ %33, %28 ]
  br i1 %35, label %36, label %41

36:                                               ; preds = %34
  %37 = load ptr, ptr %6, align 8, !tbaa !10
  %38 = getelementptr inbounds i8, ptr %37, i64 1
  store ptr %38, ptr %6, align 8, !tbaa !10
  %39 = load i64, ptr %7, align 8, !tbaa !12
  %40 = sub i64 %39, 1
  store i64 %40, ptr %7, align 8, !tbaa !12
  br label %25, !llvm.loop !21

41:                                               ; preds = %34
  %42 = load i64, ptr %7, align 8, !tbaa !12
  %43 = icmp eq i64 %42, 0
  br i1 %43, label %44, label %45

44:                                               ; preds = %41
  store i32 22, ptr %5, align 4
  store i32 1, ptr %11, align 4
  br label %86

45:                                               ; preds = %41
  %46 = load i64, ptr %9, align 8, !tbaa !12
  %47 = icmp eq i64 %46, -1
  br i1 %47, label %48, label %51

48:                                               ; preds = %45
  %49 = load i64, ptr %7, align 8, !tbaa !12
  %50 = sub i64 %49, 1
  store i64 %50, ptr %9, align 8, !tbaa !12
  br label %51

51:                                               ; preds = %48, %45
  br label %52

52:                                               ; preds = %66, %51
  %53 = load i64, ptr %7, align 8, !tbaa !12
  %54 = icmp ugt i64 %53, 0
  br i1 %54, label %55, label %64

55:                                               ; preds = %52
  %56 = load ptr, ptr %8, align 8, !tbaa !10
  %57 = getelementptr inbounds i8, ptr %56, i64 0
  %58 = load i8, ptr %57, align 1, !tbaa !14
  %59 = sext i8 %58 to i32
  %60 = icmp ne i32 %59, 0
  br i1 %60, label %61, label %64

61:                                               ; preds = %55
  %62 = load i64, ptr %9, align 8, !tbaa !12
  %63 = icmp ugt i64 %62, 0
  br label %64

64:                                               ; preds = %61, %55, %52
  %65 = phi i1 [ false, %55 ], [ false, %52 ], [ %63, %61 ]
  br i1 %65, label %66, label %76

66:                                               ; preds = %64
  %67 = load ptr, ptr %8, align 8, !tbaa !10
  %68 = getelementptr inbounds nuw i8, ptr %67, i32 1
  store ptr %68, ptr %8, align 8, !tbaa !10
  %69 = load i8, ptr %67, align 1, !tbaa !14
  %70 = load ptr, ptr %6, align 8, !tbaa !10
  %71 = getelementptr inbounds nuw i8, ptr %70, i32 1
  store ptr %71, ptr %6, align 8, !tbaa !10
  store i8 %69, ptr %70, align 1, !tbaa !14
  %72 = load i64, ptr %7, align 8, !tbaa !12
  %73 = sub i64 %72, 1
  store i64 %73, ptr %7, align 8, !tbaa !12
  %74 = load i64, ptr %9, align 8, !tbaa !12
  %75 = sub i64 %74, 1
  store i64 %75, ptr %9, align 8, !tbaa !12
  br label %52, !llvm.loop !22

76:                                               ; preds = %64
  %77 = load i64, ptr %7, align 8, !tbaa !12
  %78 = icmp ugt i64 %77, 0
  br i1 %78, label %79, label %82

79:                                               ; preds = %76
  %80 = load ptr, ptr %6, align 8, !tbaa !10
  %81 = getelementptr inbounds i8, ptr %80, i64 0
  store i8 0, ptr %81, align 1, !tbaa !14
  br label %85

82:                                               ; preds = %76
  %83 = load ptr, ptr %10, align 8, !tbaa !10
  %84 = getelementptr inbounds i8, ptr %83, i64 0
  store i8 0, ptr %84, align 1, !tbaa !14
  store i32 34, ptr %5, align 4
  store i32 1, ptr %11, align 4
  br label %86

85:                                               ; preds = %79
  store i32 0, ptr %5, align 4
  store i32 1, ptr %11, align 4
  br label %86

86:                                               ; preds = %85, %82, %44, %22, %18, %14
  call void @llvm.lifetime.end.p0(i64 8, ptr %10) #16
  %87 = load i32, ptr %5, align 4
  ret i32 %87
}