; Function Attrs: nofree noinline norecurse nosync nounwind memory(argmem: readwrite) uwtable
define range(i32 0, 35) i32 @ma_strncat_s(ptr noundef captures(address_is_null) %0, i64 noundef %1, ptr noundef readonly captures(address_is_null) %2, i64 noundef %3) local_unnamed_addr #2 {
  %5 = icmp eq ptr %0, null
  br i1 %5, label %.loopexit, label %6

6:                                                ; preds = %4
  %7 = icmp eq i64 %1, 0
  br i1 %7, label %.loopexit, label %8

8:                                                ; preds = %6
  %9 = icmp eq ptr %2, null
  br i1 %9, label %.loopexit, label %.preheader

.preheader:                                       ; preds = %8, %12
  %.02641 = phi i64 [ %11, %12 ], [ %1, %8 ]
  %.02840 = phi ptr [ %13, %12 ], [ %0, %8 ]
  %10 = load i8, ptr %.02840, align 1, !tbaa !7
  %.not34 = icmp eq i8 %10, 0
  %11 = add i64 %.02641, -1
  br i1 %.not34, label %.critedge, label %12

12:                                               ; preds = %.preheader
  %13 = getelementptr inbounds nuw i8, ptr %.02840, i64 1
  %cond = icmp eq i64 %11, 0
  br i1 %cond, label %.loopexit, label %.preheader, !llvm.loop !14

.critedge:                                        ; preds = %.preheader
  %14 = icmp eq i64 %3, -1
  %spec.select = select i1 %14, i64 %11, i64 %3
  br label %15

15:                                               ; preds = %.critedge, %19
  %.145 = phi i64 [ %spec.select, %.critedge ], [ %23, %19 ]
  %.02544 = phi ptr [ %2, %.critedge ], [ %20, %19 ]
  %.12743 = phi i64 [ %.02641, %.critedge ], [ %22, %19 ]
  %.12942 = phi ptr [ %.02840, %.critedge ], [ %21, %19 ]
  %16 = load i8, ptr %.02544, align 1, !tbaa !7
  %17 = icmp ne i8 %16, 0
  %18 = icmp ne i64 %.145, 0
  %or.cond = select i1 %17, i1 %18, i1 false
  br i1 %or.cond, label %19, label %.loopexit.sink.split

19:                                               ; preds = %15
  %20 = getelementptr inbounds nuw i8, ptr %.02544, i64 1
  %21 = getelementptr inbounds nuw i8, ptr %.12942, i64 1
  store i8 %16, ptr %.12942, align 1, !tbaa !7
  %22 = add i64 %.12743, -1
  %23 = add i64 %.145, -1
  %.not35 = icmp eq i64 %22, 0
  br i1 %.not35, label %.loopexit.sink.split, label %15, !llvm.loop !15

.loopexit.sink.split:                             ; preds = %19, %15
  %.12942.lcssa.sink = phi ptr [ %.12942, %15 ], [ %0, %19 ]
  %.0.ph = phi i32 [ 0, %15 ], [ 34, %19 ]
  store i8 0, ptr %.12942.lcssa.sink, align 1, !tbaa !7
  br label %.loopexit

.loopexit:                                        ; preds = %12, %.loopexit.sink.split, %8, %6, %4
  %.0 = phi i32 [ 22, %4 ], [ 34, %6 ], [ 22, %8 ], [ %.0.ph, %.loopexit.sink.split ], [ 22, %12 ]
  ret i32 %.0
}